target datalayout = "e-m:e-p270:32:32-p271:32:32-p272:64:64-i64:64-i128:128-f80:128-n8:16:32:64-S128"
target triple = "x86_64-pc-linux-gnu"

@.str.28 = private unnamed_addr constant [26 x i8] c"syntax error in range: %s\00", align 1
@.str.29 = private unnamed_addr constant [42 x i8] c"value too large in range: '%s' (max = %u)\00", align 1
@.str.30 = private unnamed_addr constant [75 x i8] c"Unable to convert range. Please report this to wireshark-dev@wireshark.org\00", align 1

; Function Attrs: null_pointer_is_valid sspstrong uwtable
define zeroext i1 @uat_fld_chk_range(ptr noundef %0, ptr noundef %1, i32 noundef %2, ptr noundef %3, ptr noundef %4, ptr noundef %5) #0 {
  %7 = alloca ptr, align 8
  %8 = alloca ptr, align 8
  %9 = alloca i32, align 4
  %10 = alloca ptr, align 8
  %11 = alloca ptr, align 8
  %12 = alloca ptr, align 8
  %13 = alloca ptr, align 8
  %14 = alloca ptr, align 8
  %15 = alloca i32, align 4
  %16 = alloca i8, align 1
  store ptr %0, ptr %7, align 8
  store ptr %1, ptr %8, align 8
  store i32 %2, ptr %9, align 4
  store ptr %3, ptr %10, align 8
  store ptr %4, ptr %11, align 8
  store ptr %5, ptr %12, align 8
  call void @llvm.lifetime.start.p0(i64 8, ptr %13) #13
  %17 = load ptr, ptr %8, align 8
  %18 = load i32, ptr %9, align 4
  %19 = zext i32 %18 to i64
  %20 = call noalias ptr @g_strndup(ptr noundef %17, i64 noundef %19)
  store ptr %20, ptr %13, align 8
  call void @llvm.lifetime.start.p0(i64 8, ptr %14) #13
  store ptr null, ptr %14, align 8
  call void @llvm.lifetime.start.p0(i64 4, ptr %15) #13
  %21 = load ptr, ptr %13, align 8
  %22 = load ptr, ptr %11, align 8
  %23 = ptrtoint ptr %22 to i64
  %24 = trunc i64 %23 to i32
  %25 = call i32 @range_convert_str(ptr noundef null, ptr noundef %14, ptr noundef %21, i32 noundef %24)
  store i32 %25, ptr %15, align 4
  call void @llvm.lifetime.start.p0(i64 1, ptr %16) #13
  store i8 0, ptr %16, align 1
  %26 = load i32, ptr %15, align 4
  switch i32 %26, label %40 [
    i32 0, label %27
    i32 1, label %29
    i32 2, label %33
  ]

27:                                               ; preds = %6
  %28 = load ptr, ptr %12, align 8
  store ptr null, ptr %28, align 8
  store i8 1, ptr %16, align 1
  br label %43

29:                                               ; preds = %6
  %30 = load ptr, ptr %13, align 8
  %31 = call noalias ptr (ptr, ptr, ...) @wmem_strdup_printf(ptr noundef null, ptr noundef @.str.28, ptr noundef %30)
  %32 = load ptr, ptr %12, align 8
  store ptr %31, ptr %32, align 8
  store i8 0, ptr %16, align 1
  br label %43

33:                                               ; preds = %6
  %34 = load ptr, ptr %13, align 8
  %35 = load ptr, ptr %11, align 8
  %36 = ptrtoint ptr %35 to i64
  %37 = trunc i64 %36 to i32
  %38 = call noalias ptr (ptr, ptr, ...) @wmem_strdup_printf(ptr noundef null, ptr noundef @.str.29, ptr noundef %34, i32 noundef %37)
  %39 = load ptr, ptr %12, align 8
  store ptr %38, ptr %39, align 8
  store i8 0, ptr %16, align 1
  br label %43

40:                                               ; preds = %6
  %41 = call noalias ptr @g_strdup(ptr noundef @.str.30)
  %42 = load ptr, ptr %12, align 8
  store ptr %41, ptr %42, align 8
  store i8 0, ptr %16, align 1
  br label %43

43:                                               ; preds = %40, %33, %29, %27
  %44 = load ptr, ptr %13, align 8
  call void @g_free(ptr noundef %44)
  %45 = load ptr, ptr %14, align 8
  call void @wmem_free(ptr noundef null, ptr noundef %45)
  %46 = load i8, ptr %16, align 1, !range !6, !noundef !7
  %47 = trunc i8 %46 to i1
  call void @llvm.lifetime.end.p0(i64 1, ptr %16) #13
  call void @llvm.lifetime.end.p0(i64 4, ptr %15) #13
  call void @llvm.lifetime.end.p0(i64 8, ptr %14) #13
  call void @llvm.lifetime.end.p0(i64 8, ptr %13) #13
  ret i1 %47
}