; Function Attrs: null_pointer_is_valid sspstrong uwtable
define noundef zeroext i1 @uat_fld_chk_range(ptr noundef readnone captures(none) %0, ptr noundef %1, i32 noundef %2, ptr noundef readnone captures(none) %3, ptr noundef %4, ptr noundef writeonly captures(none) initializes((0, 8)) %5) local_unnamed_addr #0 {
  %7 = alloca ptr, align 8
  %8 = zext i32 %2 to i64
  %9 = tail call noalias ptr @g_strndup(ptr noundef %1, i64 noundef %8)
  call void @llvm.lifetime.start.p0(i64 8, ptr nonnull %7) #17
  store ptr null, ptr %7, align 8
  %10 = ptrtoint ptr %4 to i64
  %11 = trunc i64 %10 to i32
  %12 = call i32 @range_convert_str(ptr noundef null, ptr noundef nonnull %7, ptr noundef %9, i32 noundef %11)
  switch i32 %12, label %17 [
    i32 0, label %19
    i32 1, label %13
    i32 2, label %15
  ]

13:                                               ; preds = %6
  %14 = call noalias ptr (ptr, ptr, ...) @wmem_strdup_printf(ptr noundef null, ptr noundef nonnull @.str.28, ptr noundef %9)
  br label %19

15:                                               ; preds = %6
  %16 = call noalias ptr (ptr, ptr, ...) @wmem_strdup_printf(ptr noundef null, ptr noundef nonnull @.str.29, ptr noundef %9, i32 noundef %11)
  br label %19

17:                                               ; preds = %6
  %18 = call noalias ptr @g_strdup(ptr noundef nonnull @.str.30)
  br label %19

19:                                               ; preds = %6, %17, %15, %13
  %.sink = phi ptr [ %18, %17 ], [ %16, %15 ], [ %14, %13 ], [ null, %6 ]
  %.0 = phi i1 [ false, %17 ], [ false, %15 ], [ false, %13 ], [ true, %6 ]
  store ptr %.sink, ptr %5, align 8
  call void @g_free(ptr noundef %9)
  %20 = load ptr, ptr %7, align 8
  call void @wmem_free(ptr noundef null, ptr noundef %20)
  call void @llvm.lifetime.end.p0(i64 8, ptr nonnull %7) #17
  ret i1 %.0
}